Certificate:
    Data:
        Version: 3 (0x2)
        Serial Number: 1 (0x1)
        Signature Algorithm: sha256WithRSAEncryption
        Issuer: C=RO, ST=B, L=Bucharest, O=UPB, OU=SAS, CN=dstratulatCA
        Validity
            Not Before: Oct 25 12:12:55 2023 GMT
            Not After : Oct 22 12:12:55 2033 GMT
        Subject: C=RO, L=Bucharest-Server, OU=SAS-Server, CN=server/emailAddress=server@mail.com
        Subject Public Key Info:
            Public Key Algorithm: rsaEncryption
                Public-Key: (2048 bit)
                Modulus:
                    00:93:31:f5:c5:08:5f:0f:c6:83:06:d5:57:4a:d7:
                    83:c8:a3:18:9a:f2:32:aa:69:7d:48:f0:9c:64:49:
                    e9:b0:96:a3:9e:79:6a:56:dc:ef:5b:4d:31:c9:41:
                    fb:7e:0d:55:43:2a:2e:6c:2b:78:c1:c7:92:ce:f5:
                    47:72:f5:6b:26:28:67:1b:e3:b9:2f:f0:24:1e:b7:
                    0f:29:40:f2:6b:9c:df:e5:76:ce:b4:37:da:7c:d9:
                    79:00:45:15:89:d5:a7:f8:4a:78:26:3e:be:d8:26:
                    15:94:51:d1:bd:85:7a:b8:1c:17:68:3a:d7:9d:76:
                    f6:14:9d:af:ac:bf:f4:07:a8:2a:ad:3d:16:37:97:
                    c8:22:2a:55:ba:11:ed:bf:9f:d2:76:6b:4e:ce:23:
                    bf:c9:26:03:12:34:0c:bd:b8:ac:b3:41:2a:4f:df:
                    9e:b7:74:75:98:a2:74:b0:d6:63:9e:24:85:96:f1:
                    d0:bc:97:c1:6b:07:e0:ad:18:b3:c8:0e:71:fc:1e:
                    4b:40:9f:3f:f0:7a:ed:6a:53:34:73:ae:df:43:ca:
                    dc:fe:7f:06:51:f2:c8:0d:0c:e0:07:4e:d1:a6:2b:
                    92:7a:d5:59:f6:88:20:f7:95:bb:14:1b:d1:6c:91:
                    d3:32:4e:21:f5:ff:d2:ac:5f:66:9e:e3:a3:67:dd:
                    ce:07
                Exponent: 65537 (0x10001)
        X509v3 extensions:
            X509v3 Basic Constraints: 
                CA:FALSE
            Netscape Cert Type: 
                SSL Server
            X509v3 Subject Key Identifier: 
                47:81:C8:A0:A1:14:D1:75:22:59:3C:E3:69:F6:9F:68:2D:93:FD:00
            X509v3 Authority Key Identifier: 
                keyid:CC:78:D2:BA:8A:BB:E1:2B:24:2F:12:4E:D6:6E:30:E2:39:A0:E7:95
                DirName:/C=RO/ST=B/L=Bucharest/O=UPB/OU=SAS/CN=dstratulatCA
                serial:59:DF:61:83:31:84:57:FF:8D:93:08:0B:A8:AE:BC:E3:26:CC:33:DF
            X509v3 Extended Key Usage: 
                TLS Web Server Authentication
            X509v3 Key Usage: 
                Digital Signature, Key Encipherment
    Signature Algorithm: sha256WithRSAEncryption
    Signature Value:
        0d:4e:21:ab:aa:20:a6:bf:88:9d:0f:e9:d8:20:94:5a:04:4a:
        44:2b:82:ca:d5:e2:c8:9c:07:d4:5a:7e:98:d9:4b:b0:67:c7:
        b5:2c:28:25:b0:ec:1f:47:94:f6:e2:b3:ce:c3:bd:64:75:3d:
        c3:69:4f:a3:9e:fb:2d:bb:65:f2:6b:43:79:41:ce:09:6a:95:
        ad:1c:74:2e:7d:ae:04:16:f9:31:2b:bc:ba:16:24:63:3d:da:
        20:99:9d:33:fa:53:62:cf:83:1d:f5:df:2c:3c:97:73:a0:db:
        f4:db:7e:f4:91:63:9c:8f:50:0f:0a:1a:7a:f0:e1:44:f5:d2:
        fd:63:f0:d5:1c:aa:d7:f6:d2:b6:f4:ea:eb:c4:7c:de:1c:61:
        94:1c:e4:6d:3b:c5:0b:87:ca:f0:9d:aa:ee:5d:4a:85:94:33:
        88:de:6f:5e:23:30:db:92:50:ee:a7:e1:48:14:51:a6:d6:f4:
        c7:da:1c:91:f6:92:4f:ad:97:db:16:78:a8:0f:a6:ec:31:0a:
        fe:00:99:45:74:b5:21:ca:ee:db:77:ec:3f:4b:c7:72:78:2f:
        8d:19:28:22:66:74:02:57:ae:e6:79:5e:66:bd:16:47:3f:12:
        bd:56:df:c4:e4:f3:05:df:ad:d6:9d:0d:4d:58:c9:74:cc:86:
        cd:3e:36:eb
-----BEGIN CERTIFICATE-----
MIIETTCCAzWgAwIBAgIBATANBgkqhkiG9w0BAQsFADBgMQswCQYDVQQGEwJSTzEK
MAgGA1UECAwBQjESMBAGA1UEBwwJQnVjaGFyZXN0MQwwCgYDVQQKDANVUEIxDDAK
BgNVBAsMA1NBUzEVMBMGA1UEAwwMZHN0cmF0dWxhdENBMB4XDTIzMTAyNTEyMTI1
NVoXDTMzMTAyMjEyMTI1NVowbjELMAkGA1UEBhMCUk8xGTAXBgNVBAcMEEJ1Y2hh
cmVzdC1TZXJ2ZXIxEzARBgNVBAsMClNBUy1TZXJ2ZXIxDzANBgNVBAMMBnNlcnZl
cjEeMBwGCSqGSIb3DQEJARYPc2VydmVyQG1haWwuY29tMIIBIjANBgkqhkiG9w0B
AQEFAAOCAQ8AMIIBCgKCAQEAkzH1xQhfD8aDBtVXSteDyKMYmvIyqml9SPCcZEnp
sJajnnlqVtzvW00xyUH7fg1VQyoubCt4wceSzvVHcvVrJihnG+O5L/AkHrcPKUDy
a5zf5XbOtDfafNl5AEUVidWn+Ep4Jj6+2CYVlFHRvYV6uBwXaDrXnXb2FJ2vrL/0
B6gqrT0WN5fIIipVuhHtv5/SdmtOziO/ySYDEjQMvbiss0EqT9+et3R1mKJ0sNZj
niSFlvHQvJfBawfgrRizyA5x/B5LQJ8/8HrtalM0c67fQ8rc/n8GUfLIDQzgB07R
piuSetVZ9ogg95W7FBvRbJHTMk4h9f/SrF9mnuOjZ93OBwIDAQABo4IBAjCB/zAJ
BgNVHRMEAjAAMBEGCWCGSAGG+EIBAQQEAwIGQDAdBgNVHQ4EFgQUR4HIoKEU0XUi
WTzjafafaC2T/QAwgZ0GA1UdIwSBlTCBkoAUzHjSuoq74SskLxJO1m4w4jmg55Wh
ZKRiMGAxCzAJBgNVBAYTAlJPMQowCAYDVQQIDAFCMRIwEAYDVQQHDAlCdWNoYXJl
c3QxDDAKBgNVBAoMA1VQQjEMMAoGA1UECwwDU0FTMRUwEwYDVQQDDAxkc3RyYXR1
bGF0Q0GCFFnfYYMxhFf/jZMIC6iuvOMmzDPfMBMGA1UdJQQMMAoGCCsGAQUFBwMB
MAsGA1UdDwQEAwIFoDANBgkqhkiG9w0BAQsFAAOCAQEADU4hq6ogpr+InQ/p2CCU
WgRKRCuCytXiyJwH1Fp+mNlLsGfHtSwoJbDsH0eU9uKzzsO9ZHU9w2lPo577Lbtl
8mtDeUHOCWqVrRx0Ln2uBBb5MSu8uhYkYz3aIJmdM/pTYs+DHfXfLDyXc6Db9Nt+
9JFjnI9QDwoaevDhRPXS/WPw1Ryq1/bStvTq68R83hxhlBzkbTvFC4fK8J2q7l1K
hZQziN5vXiMw25JQ7qfhSBRRptb0x9ockfaST62X2xZ4qA+m7DEK/gCZRXS1Icru
23fsP0vHcngvjRkoImZ0Aleu5nleZr0WRz8SvVbfxOTzBd+t1p0NTVjJdMyGzT42
6w==
-----END CERTIFICATE-----
