Certificate:
    Data:
        Version: 3 (0x2)
        Serial Number: 1 (0x1)
        Signature Algorithm: sha256WithRSAEncryption
        Issuer: C=RO, ST=B, L=Bucharest, O=UPB, OU=SAS, CN=dstratulatCA
        Validity
            Not Before: Oct 28 16:49:24 2023 GMT
            Not After : Oct 25 16:49:24 2033 GMT
        Subject: C=RO, L=Bucharest-Server, OU=SAS-Server, CN=server/emailAddress=server@mail.com
        Subject Public Key Info:
            Public Key Algorithm: rsaEncryption
                Public-Key: (2048 bit)
                Modulus:
                    00:cf:28:f5:c8:11:59:10:93:6c:6d:32:83:ae:31:
                    ed:ff:30:bb:75:eb:a7:14:0d:3f:9a:35:f2:a3:18:
                    91:f8:11:c0:9a:4a:69:d9:3f:fd:b6:66:cc:63:76:
                    4e:cc:a8:ac:d7:b3:93:7e:a1:0b:cd:95:17:a5:ec:
                    89:39:fe:f0:cc:2d:bc:ff:66:1d:f2:a6:e5:62:97:
                    84:fc:3e:dc:d2:b5:d0:d6:f3:18:50:8c:a3:ab:16:
                    d1:de:fd:3e:4e:54:79:e8:3e:6d:d3:76:82:f2:ff:
                    f4:42:35:e6:73:70:27:0f:5c:30:d9:3c:fc:f4:bf:
                    e3:75:d2:37:c8:38:84:14:5d:b2:08:47:e6:04:f3:
                    1e:22:0d:31:78:53:2d:9e:86:12:45:2d:fd:0e:fb:
                    ad:e7:3e:36:86:ab:3a:98:ea:f5:df:37:12:11:e0:
                    d5:be:8b:fd:51:9e:8d:18:ce:f4:35:30:77:15:e7:
                    83:8b:e8:cc:f0:b8:1c:2e:15:c6:29:e1:a1:b5:25:
                    ec:b6:4d:cd:90:09:da:08:31:90:d3:79:7b:08:bb:
                    40:27:cc:a5:d1:71:8c:8c:a5:e1:86:d3:b6:6f:96:
                    f5:5e:b8:1d:43:1b:2f:1c:6f:02:a6:55:ae:c8:7f:
                    43:a1:36:6d:5f:85:8b:a8:50:cb:37:2c:0b:7b:e1:
                    10:11
                Exponent: 65537 (0x10001)
        X509v3 extensions:
            X509v3 Basic Constraints: 
                CA:FALSE
            Netscape Cert Type: 
                SSL Server
            X509v3 Subject Key Identifier: 
                6B:F3:49:9B:94:E3:DD:9E:1C:1B:E3:56:32:59:97:82:57:AE:B3:B7
            X509v3 Authority Key Identifier: 
                keyid:E9:FA:CD:8E:E3:DD:3C:98:0A:3B:67:34:C9:13:23:1A:A1:BB:71:D7
                DirName:/C=RO/ST=B/L=Bucharest/O=UPB/OU=SAS/CN=dstratulatCA
                serial:2D:01:52:1D:72:D6:77:89:64:FA:E1:94:4A:1A:AD:DF:82:D8:2A:9C
            X509v3 Extended Key Usage: 
                TLS Web Server Authentication
            X509v3 Key Usage: 
                Digital Signature, Key Encipherment
    Signature Algorithm: sha256WithRSAEncryption
    Signature Value:
        ac:a5:8e:2d:ca:30:86:93:b3:98:6d:e9:83:6b:72:91:79:0b:
        71:df:43:7b:73:b0:2d:ba:e3:f3:1d:93:7c:03:c5:a2:c8:d1:
        4b:56:94:b2:2d:56:85:3b:87:01:eb:01:25:c8:ec:1a:91:de:
        22:35:80:27:f0:e9:c4:9b:86:f7:d6:a5:86:b2:75:25:e7:9d:
        0b:1c:8e:27:07:12:74:3c:96:e7:46:19:14:7b:53:01:28:a1:
        2b:c5:35:06:12:df:c3:f9:ac:f3:97:dd:4e:dc:20:7d:ed:41:
        92:a7:da:88:eb:09:85:5b:f9:d2:1e:42:1b:df:f8:04:68:4e:
        dd:73:60:9c:c0:93:6c:4c:73:70:6d:61:bf:4c:95:40:76:b9:
        af:8f:16:03:0c:34:11:07:fc:ad:eb:44:93:b4:29:c8:02:e8:
        39:4b:79:ee:19:e5:23:84:f7:b7:9c:26:c8:b2:f0:86:2c:ef:
        b4:22:d2:57:dd:89:18:f3:ab:d5:f0:5c:c1:7b:a9:11:5b:05:
        d0:41:46:8c:98:cc:8b:55:4b:4b:ab:60:17:6b:e8:eb:bd:1e:
        32:74:32:42:5b:7a:bd:11:a3:42:9d:23:91:23:65:52:2a:8e:
        9b:c6:08:13:1d:8b:35:60:c3:e2:f7:1d:75:35:1a:41:52:37:
        ee:48:70:c8
-----BEGIN CERTIFICATE-----
MIIETTCCAzWgAwIBAgIBATANBgkqhkiG9w0BAQsFADBgMQswCQYDVQQGEwJSTzEK
MAgGA1UECAwBQjESMBAGA1UEBwwJQnVjaGFyZXN0MQwwCgYDVQQKDANVUEIxDDAK
BgNVBAsMA1NBUzEVMBMGA1UEAwwMZHN0cmF0dWxhdENBMB4XDTIzMTAyODE2NDky
NFoXDTMzMTAyNTE2NDkyNFowbjELMAkGA1UEBhMCUk8xGTAXBgNVBAcMEEJ1Y2hh
cmVzdC1TZXJ2ZXIxEzARBgNVBAsMClNBUy1TZXJ2ZXIxDzANBgNVBAMMBnNlcnZl
cjEeMBwGCSqGSIb3DQEJARYPc2VydmVyQG1haWwuY29tMIIBIjANBgkqhkiG9w0B
AQEFAAOCAQ8AMIIBCgKCAQEAzyj1yBFZEJNsbTKDrjHt/zC7deunFA0/mjXyoxiR
+BHAmkpp2T/9tmbMY3ZOzKis17OTfqELzZUXpeyJOf7wzC28/2Yd8qblYpeE/D7c
0rXQ1vMYUIyjqxbR3v0+TlR56D5t03aC8v/0QjXmc3AnD1ww2Tz89L/jddI3yDiE
FF2yCEfmBPMeIg0xeFMtnoYSRS39Dvut5z42hqs6mOr13zcSEeDVvov9UZ6NGM70
NTB3FeeDi+jM8LgcLhXGKeGhtSXstk3NkAnaCDGQ03l7CLtAJ8yl0XGMjKXhhtO2
b5b1XrgdQxsvHG8CplWuyH9DoTZtX4WLqFDLNywLe+EQEQIDAQABo4IBAjCB/zAJ
BgNVHRMEAjAAMBEGCWCGSAGG+EIBAQQEAwIGQDAdBgNVHQ4EFgQUa/NJm5Tj3Z4c
G+NWMlmXgleus7cwgZ0GA1UdIwSBlTCBkoAU6frNjuPdPJgKO2c0yRMjGqG7cdeh
ZKRiMGAxCzAJBgNVBAYTAlJPMQowCAYDVQQIDAFCMRIwEAYDVQQHDAlCdWNoYXJl
c3QxDDAKBgNVBAoMA1VQQjEMMAoGA1UECwwDU0FTMRUwEwYDVQQDDAxkc3RyYXR1
bGF0Q0GCFC0BUh1y1neJZPrhlEoard+C2CqcMBMGA1UdJQQMMAoGCCsGAQUFBwMB
MAsGA1UdDwQEAwIFoDANBgkqhkiG9w0BAQsFAAOCAQEArKWOLcowhpOzmG3pg2ty
kXkLcd9De3OwLbrj8x2TfAPFosjRS1aUsi1WhTuHAesBJcjsGpHeIjWAJ/DpxJuG
99alhrJ1JeedCxyOJwcSdDyW50YZFHtTASihK8U1BhLfw/ms85fdTtwgfe1Bkqfa
iOsJhVv50h5CG9/4BGhO3XNgnMCTbExzcG1hv0yVQHa5r48WAww0EQf8retEk7Qp
yALoOUt57hnlI4T3t5wmyLLwhizvtCLSV92JGPOr1fBcwXupEVsF0EFGjJjMi1VL
S6tgF2vo670eMnQyQlt6vRGjQp0jkSNlUiqOm8YIEx2LNWDD4vcddTUaQVI37khw
yA==
-----END CERTIFICATE-----
