Certificate:
    Data:
        Version: 3 (0x2)
        Serial Number: 2 (0x2)
        Signature Algorithm: sha256WithRSAEncryption
        Issuer: C=RO, ST=B, L=Bucharest, O=UPB, OU=SAS, CN=dstratulatCA
        Validity
            Not Before: Oct 28 16:49:31 2023 GMT
            Not After : Oct 25 16:49:31 2033 GMT
        Subject: C=RO, OU=SAS-client, CN=client/emailAddress=client@mail.com
        Subject Public Key Info:
            Public Key Algorithm: rsaEncryption
                Public-Key: (2048 bit)
                Modulus:
                    00:cd:58:7a:c3:d5:b1:70:89:ee:b7:bc:09:f2:a1:
                    ab:ca:c6:c7:ed:9d:c0:c3:a8:dd:a9:b7:17:14:f2:
                    f8:e9:b7:88:04:fe:0f:dc:c5:1e:9b:f3:69:65:8c:
                    9b:38:6a:d3:5a:d2:11:be:5f:2d:8d:1d:60:42:a2:
                    0c:e5:e3:e6:ea:32:61:3c:5a:46:4a:ff:65:d1:1d:
                    42:49:1b:40:3d:bf:28:bc:3b:fd:c1:4c:bc:4a:52:
                    64:93:ac:a7:32:2a:9e:81:75:c7:5b:06:c7:31:ee:
                    57:7b:17:d4:fa:44:98:08:65:0f:23:bb:ce:49:3d:
                    27:9c:4c:55:24:d6:f6:93:29:26:42:f4:97:de:d5:
                    c8:9c:44:0d:81:74:ae:9b:ab:6a:1b:da:3c:48:08:
                    e2:ea:a1:07:fa:db:33:c1:e0:23:1e:a5:c7:5f:f0:
                    c3:fe:ec:d6:0f:84:e8:55:65:90:c9:a2:22:b6:fd:
                    03:85:e0:6f:a0:e8:c9:f3:54:74:cf:e1:e3:bc:08:
                    73:4f:12:9a:d4:72:9e:8a:9b:58:f1:76:bd:03:1a:
                    6f:e7:e7:ea:30:97:ed:a6:24:1d:14:de:35:5b:63:
                    46:3a:86:5e:4d:34:bc:1e:0e:94:cc:d1:f6:1a:ef:
                    37:b0:ed:99:a1:b8:38:f4:fa:0d:1b:ca:15:e4:5e:
                    37:1d
                Exponent: 65537 (0x10001)
        X509v3 extensions:
            X509v3 Basic Constraints: 
                CA:FALSE
            Netscape Cert Type: 
                SSL Server
            X509v3 Subject Key Identifier: 
                58:B2:3F:06:03:71:3D:2F:04:8D:F3:EF:2B:06:55:3F:AF:DF:81:88
            X509v3 Authority Key Identifier: 
                keyid:E9:FA:CD:8E:E3:DD:3C:98:0A:3B:67:34:C9:13:23:1A:A1:BB:71:D7
                DirName:/C=RO/ST=B/L=Bucharest/O=UPB/OU=SAS/CN=dstratulatCA
                serial:2D:01:52:1D:72:D6:77:89:64:FA:E1:94:4A:1A:AD:DF:82:D8:2A:9C
            X509v3 Extended Key Usage: 
                TLS Web Server Authentication
            X509v3 Key Usage: 
                Digital Signature, Key Encipherment
    Signature Algorithm: sha256WithRSAEncryption
    Signature Value:
        70:62:05:71:99:05:1c:0c:8b:80:df:99:90:fe:6c:a6:b1:84:
        9a:31:4b:fe:bc:ea:57:7d:df:75:47:ae:8d:ac:0d:ab:61:3d:
        fa:5c:33:65:d6:41:f2:e0:7e:1b:44:32:34:51:47:5e:7f:95:
        5d:43:f0:59:2a:45:fc:c4:d8:48:72:a9:f5:20:8e:53:8e:9c:
        03:9f:79:39:b9:30:e0:92:30:c5:1c:67:35:25:d2:84:30:f7:
        ef:0d:1a:9b:83:4a:41:ea:0f:3a:f2:5a:3b:89:f5:c6:b2:96:
        e5:ef:ca:7a:ed:4b:34:e2:e7:95:b2:fc:21:b5:d9:17:5d:f1:
        d2:06:f6:06:8f:3e:6f:01:d3:6c:3e:5f:9e:cf:0a:15:17:22:
        cd:95:ee:f4:ae:fa:45:07:a0:2c:f8:92:01:e0:8c:60:a1:79:
        97:22:99:a7:c9:6c:bc:7f:f4:b6:89:8e:bd:36:2c:da:7a:13:
        1f:2a:06:a4:62:20:31:e5:fc:d5:d5:12:6f:af:f0:f7:e6:4b:
        9f:34:c2:7e:27:29:c2:71:d9:b9:89:63:b7:c0:32:b9:28:68:
        f4:32:58:ef:0f:9a:98:7a:f0:ce:2a:46:b7:b8:27:a2:e3:1e:
        61:21:5f:66:6c:49:26:36:13:c2:f9:71:86:8d:fd:e8:a1:d4:
        ed:94:39:d7
-----BEGIN CERTIFICATE-----
MIIEMjCCAxqgAwIBAgIBAjANBgkqhkiG9w0BAQsFADBgMQswCQYDVQQGEwJSTzEK
MAgGA1UECAwBQjESMBAGA1UEBwwJQnVjaGFyZXN0MQwwCgYDVQQKDANVUEIxDDAK
BgNVBAsMA1NBUzEVMBMGA1UEAwwMZHN0cmF0dWxhdENBMB4XDTIzMTAyODE2NDkz
MVoXDTMzMTAyNTE2NDkzMVowUzELMAkGA1UEBhMCUk8xEzARBgNVBAsMClNBUy1j
bGllbnQxDzANBgNVBAMMBmNsaWVudDEeMBwGCSqGSIb3DQEJARYPY2xpZW50QG1h
aWwuY29tMIIBIjANBgkqhkiG9w0BAQEFAAOCAQ8AMIIBCgKCAQEAzVh6w9WxcInu
t7wJ8qGrysbH7Z3Aw6jdqbcXFPL46beIBP4P3MUem/NpZYybOGrTWtIRvl8tjR1g
QqIM5ePm6jJhPFpGSv9l0R1CSRtAPb8ovDv9wUy8SlJkk6ynMiqegXXHWwbHMe5X
exfU+kSYCGUPI7vOST0nnExVJNb2kykmQvSX3tXInEQNgXSum6tqG9o8SAji6qEH
+tszweAjHqXHX/DD/uzWD4ToVWWQyaIitv0DheBvoOjJ81R0z+HjvAhzTxKa1HKe
iptY8Xa9Axpv5+fqMJftpiQdFN41W2NGOoZeTTS8Hg6UzNH2Gu83sO2Zobg49PoN
G8oV5F43HQIDAQABo4IBAjCB/zAJBgNVHRMEAjAAMBEGCWCGSAGG+EIBAQQEAwIG
QDAdBgNVHQ4EFgQUWLI/BgNxPS8EjfPvKwZVP6/fgYgwgZ0GA1UdIwSBlTCBkoAU
6frNjuPdPJgKO2c0yRMjGqG7cdehZKRiMGAxCzAJBgNVBAYTAlJPMQowCAYDVQQI
DAFCMRIwEAYDVQQHDAlCdWNoYXJlc3QxDDAKBgNVBAoMA1VQQjEMMAoGA1UECwwD
U0FTMRUwEwYDVQQDDAxkc3RyYXR1bGF0Q0GCFC0BUh1y1neJZPrhlEoard+C2Cqc
MBMGA1UdJQQMMAoGCCsGAQUFBwMBMAsGA1UdDwQEAwIFoDANBgkqhkiG9w0BAQsF
AAOCAQEAcGIFcZkFHAyLgN+ZkP5sprGEmjFL/rzqV33fdUeujawNq2E9+lwzZdZB
8uB+G0QyNFFHXn+VXUPwWSpF/MTYSHKp9SCOU46cA595Obkw4JIwxRxnNSXShDD3
7w0am4NKQeoPOvJaO4n1xrKW5e/Keu1LNOLnlbL8IbXZF13x0gb2Bo8+bwHTbD5f
ns8KFRcizZXu9K76RQegLPiSAeCMYKF5lyKZp8lsvH/0tomOvTYs2noTHyoGpGIg
MeX81dUSb6/w9+ZLnzTCficpwnHZuYljt8AyuSho9DJY7w+amHrwzipGt7gnouMe
YSFfZmxJJjYTwvlxho396KHU7ZQ51w==
-----END CERTIFICATE-----
