Certificate:
    Data:
        Version: 3 (0x2)
        Serial Number: 3 (0x3)
        Signature Algorithm: sha256WithRSAEncryption
        Issuer: C=RO, ST=B, L=Bucharest, O=UPB, OU=SAS, CN=dstratulatCA
        Validity
            Not Before: Oct 25 12:13:02 2023 GMT
            Not After : Oct 22 12:13:02 2033 GMT
        Subject: C=RO, OU=SAS-client2, CN=client2/emailAddress=client2@mail.com
        Subject Public Key Info:
            Public Key Algorithm: rsaEncryption
                Public-Key: (2048 bit)
                Modulus:
                    00:a5:2f:a2:c0:87:09:a6:e1:0d:57:af:98:82:4f:
                    00:0d:78:58:9b:4e:fc:72:d6:9d:71:ee:29:5d:ac:
                    c0:f2:e5:07:58:bd:7a:43:11:6c:d0:ab:1c:81:63:
                    dc:6b:74:ed:10:e4:53:64:3a:ae:81:3b:ad:cc:08:
                    a2:25:28:0d:f4:00:3e:95:cd:ed:c2:96:fa:6f:98:
                    3c:17:36:14:ed:d7:2a:be:e3:f2:10:2b:fd:78:67:
                    c6:1d:78:8c:f6:fb:4b:b8:b5:75:53:fd:99:11:96:
                    73:f5:b7:66:02:fe:d0:56:92:a0:87:83:38:08:81:
                    81:18:1d:96:db:28:b7:f5:bd:08:0c:41:3f:7d:eb:
                    11:48:ca:71:76:2c:52:c9:16:b8:cb:e9:03:92:29:
                    9c:24:fc:59:1b:a5:3e:51:3b:c9:13:4e:b4:07:90:
                    46:4a:3f:7d:be:b8:0c:ed:49:48:07:f7:52:0e:56:
                    f7:ef:c6:b1:37:0b:c2:07:c7:81:27:bc:59:63:84:
                    51:9b:86:9a:d0:19:5c:35:b7:c5:d9:ca:10:11:76:
                    bc:a8:d9:f7:c7:94:17:67:02:45:e3:dd:38:cc:d4:
                    02:13:7c:7b:5b:ef:67:e5:21:33:85:64:f2:b1:63:
                    a0:b1:40:bf:69:64:f8:da:b0:1c:da:98:36:bb:9c:
                    27:05
                Exponent: 65537 (0x10001)
        X509v3 extensions:
            X509v3 Basic Constraints: 
                CA:FALSE
            Netscape Cert Type: 
                SSL Server
            X509v3 Subject Key Identifier: 
                7F:AB:1C:D5:C3:9A:6A:A5:90:7E:9E:9B:3B:D8:F1:A6:0E:73:D2:80
            X509v3 Authority Key Identifier: 
                keyid:CC:78:D2:BA:8A:BB:E1:2B:24:2F:12:4E:D6:6E:30:E2:39:A0:E7:95
                DirName:/C=RO/ST=B/L=Bucharest/O=UPB/OU=SAS/CN=dstratulatCA
                serial:59:DF:61:83:31:84:57:FF:8D:93:08:0B:A8:AE:BC:E3:26:CC:33:DF
            X509v3 Extended Key Usage: 
                TLS Web Server Authentication
            X509v3 Key Usage: 
                Digital Signature, Key Encipherment
    Signature Algorithm: sha256WithRSAEncryption
    Signature Value:
        96:c2:46:03:72:39:77:e4:5a:3c:bb:57:86:5c:51:56:c3:e9:
        6d:65:9a:53:bf:66:09:6c:88:fd:5f:eb:9d:f7:ca:a3:93:72:
        2b:08:4b:09:20:45:73:d2:ee:e4:c8:cc:18:0c:65:77:83:2e:
        29:84:15:da:7a:23:8b:ec:b1:58:86:d8:31:14:58:2d:06:6a:
        83:a3:b9:e2:e0:91:ad:81:6e:62:26:bd:b0:a7:12:40:f0:3b:
        97:19:be:9b:e7:b1:44:90:1d:52:d6:f9:85:4a:6c:f7:88:39:
        c8:da:3c:db:b0:90:90:9d:d1:87:40:1d:21:51:ee:6e:65:40:
        c4:17:6c:80:bb:0c:1a:75:71:cc:97:a2:64:57:2a:58:4a:39:
        0b:1a:b6:6c:64:19:6a:08:df:39:f7:45:22:8d:c4:29:af:9e:
        16:5c:5c:d5:95:b7:22:63:ac:0a:5c:95:b5:0a:f7:56:2b:bb:
        91:c0:c2:6a:6a:59:2b:87:e3:af:e1:b8:95:72:8c:8a:be:57:
        52:b0:5f:80:6d:f1:a7:62:39:ad:1b:c1:40:a8:d6:17:d4:a5:
        76:e1:12:e2:83:b1:09:5a:93:2a:86:a8:75:d7:2a:e0:30:31:
        d9:d8:9f:57:ae:9f:8f:21:d5:80:9f:71:d3:7f:ea:53:25:8a:
        f7:6a:f2:1f
-----BEGIN CERTIFICATE-----
MIIENTCCAx2gAwIBAgIBAzANBgkqhkiG9w0BAQsFADBgMQswCQYDVQQGEwJSTzEK
MAgGA1UECAwBQjESMBAGA1UEBwwJQnVjaGFyZXN0MQwwCgYDVQQKDANVUEIxDDAK
BgNVBAsMA1NBUzEVMBMGA1UEAwwMZHN0cmF0dWxhdENBMB4XDTIzMTAyNTEyMTMw
MloXDTMzMTAyMjEyMTMwMlowVjELMAkGA1UEBhMCUk8xFDASBgNVBAsMC1NBUy1j
bGllbnQyMRAwDgYDVQQDDAdjbGllbnQyMR8wHQYJKoZIhvcNAQkBFhBjbGllbnQy
QG1haWwuY29tMIIBIjANBgkqhkiG9w0BAQEFAAOCAQ8AMIIBCgKCAQEApS+iwIcJ
puENV6+Ygk8ADXhYm078ctadce4pXazA8uUHWL16QxFs0KscgWPca3TtEORTZDqu
gTutzAiiJSgN9AA+lc3twpb6b5g8FzYU7dcqvuPyECv9eGfGHXiM9vtLuLV1U/2Z
EZZz9bdmAv7QVpKgh4M4CIGBGB2W2yi39b0IDEE/fesRSMpxdixSyRa4y+kDkimc
JPxZG6U+UTvJE060B5BGSj99vrgM7UlIB/dSDlb378axNwvCB8eBJ7xZY4RRm4aa
0BlcNbfF2coQEXa8qNn3x5QXZwJF4904zNQCE3x7W+9n5SEzhWTysWOgsUC/aWT4
2rAc2pg2u5wnBQIDAQABo4IBAjCB/zAJBgNVHRMEAjAAMBEGCWCGSAGG+EIBAQQE
AwIGQDAdBgNVHQ4EFgQUf6sc1cOaaqWQfp6bO9jxpg5z0oAwgZ0GA1UdIwSBlTCB
koAUzHjSuoq74SskLxJO1m4w4jmg55WhZKRiMGAxCzAJBgNVBAYTAlJPMQowCAYD
VQQIDAFCMRIwEAYDVQQHDAlCdWNoYXJlc3QxDDAKBgNVBAoMA1VQQjEMMAoGA1UE
CwwDU0FTMRUwEwYDVQQDDAxkc3RyYXR1bGF0Q0GCFFnfYYMxhFf/jZMIC6iuvOMm
zDPfMBMGA1UdJQQMMAoGCCsGAQUFBwMBMAsGA1UdDwQEAwIFoDANBgkqhkiG9w0B
AQsFAAOCAQEAlsJGA3I5d+RaPLtXhlxRVsPpbWWaU79mCWyI/V/rnffKo5NyKwhL
CSBFc9Lu5MjMGAxld4MuKYQV2noji+yxWIbYMRRYLQZqg6O54uCRrYFuYia9sKcS
QPA7lxm+m+exRJAdUtb5hUps94g5yNo827CQkJ3Rh0AdIVHubmVAxBdsgLsMGnVx
zJeiZFcqWEo5Cxq2bGQZagjfOfdFIo3EKa+eFlxc1ZW3ImOsClyVtQr3Viu7kcDC
ampZK4fjr+G4lXKMir5XUrBfgG3xp2I5rRvBQKjWF9SlduES4oOxCVqTKoaoddcq
4DAx2difV66fjyHVgJ9x03/qUyWK92ryHw==
-----END CERTIFICATE-----
