Certificate:
    Data:
        Version: 3 (0x2)
        Serial Number: 1 (0x1)
        Signature Algorithm: sha256WithRSAEncryption
        Issuer: C=RO, ST=IF, L=Bucharest, O=UPB, OU=ACS, CN=dstratulat_server/emailAddress=dragos.stratulat@stud.acs.upb.rp
        Validity
            Not Before: Oct 25 09:51:42 2023 GMT
            Not After : Oct 22 09:51:42 2033 GMT
        Subject: C=RO, ST=IF, L=Bucharest, O=UPB, OU=ACS, CN=server/emailAddress=email@cs.pub.ro
        Subject Public Key Info:
            Public Key Algorithm: rsaEncryption
                Public-Key: (2048 bit)
                Modulus:
                    00:e6:7e:ed:a4:54:9f:60:f3:de:ca:7b:53:fa:83:
                    73:7d:ea:47:6c:4d:83:e1:ff:77:7b:0d:e0:1c:a8:
                    ae:1f:9c:2a:f8:ca:89:aa:05:20:5c:4b:16:c4:b6:
                    11:b4:ea:f3:0d:a5:cf:c3:32:67:06:6a:a4:b2:a4:
                    60:bb:5f:72:3d:c5:77:96:1b:52:1d:df:41:40:e5:
                    ea:6f:c1:16:fd:fd:78:67:8f:e1:ab:c7:cf:76:b4:
                    5b:c8:77:f9:23:9a:07:c4:50:ea:0c:67:d6:30:bb:
                    a6:22:73:db:91:b6:a6:2e:b5:84:90:3e:e7:e6:63:
                    7d:ea:96:b6:fc:3f:45:45:e3:19:92:09:57:19:07:
                    c9:f6:ca:ec:dc:66:5d:dc:d5:f0:6c:36:35:6d:b0:
                    80:dd:26:8b:ec:19:24:e8:1d:f8:0c:f9:ac:28:87:
                    05:b9:64:91:10:67:7d:17:32:24:19:08:80:f9:c9:
                    3f:3b:79:48:ea:c6:e4:6e:5e:3e:b8:35:dc:22:10:
                    25:ff:9f:5d:c9:5f:34:bc:cb:4f:df:dc:dc:54:3d:
                    9b:c6:56:3e:45:dd:e9:2d:11:c7:72:8c:d4:46:3c:
                    76:21:81:48:58:32:8a:56:84:02:bf:5e:f0:4c:bc:
                    f9:94:64:08:6e:fa:05:27:2b:7b:ff:95:49:9b:7b:
                    c3:5f
                Exponent: 65537 (0x10001)
        X509v3 extensions:
            X509v3 Basic Constraints: 
                CA:FALSE
            Netscape Cert Type: 
                SSL Server
            X509v3 Subject Key Identifier: 
                06:09:59:F4:03:7F:3B:F8:6C:4B:9E:85:16:86:81:6A:ED:8A:26:61
            X509v3 Authority Key Identifier: 
                keyid:D7:2B:55:6B:9F:25:CF:10:64:A4:31:85:ED:18:C3:5B:DD:70:2B:C3
                DirName:/C=RO/ST=IF/L=Bucharest/O=UPB/OU=ACS/CN=dstratulat_server/emailAddress=dragos.stratulat@stud.acs.upb.rp
                serial:21:0D:01:55:2C:A1:45:16:9B:15:12:AC:7C:05:24:01:F2:FF:18:75
            X509v3 Extended Key Usage: 
                TLS Web Server Authentication
            X509v3 Key Usage: 
                Digital Signature, Key Encipherment
    Signature Algorithm: sha256WithRSAEncryption
    Signature Value:
        16:d1:0e:de:93:d1:bf:85:e5:61:5c:97:2f:ca:a9:cd:42:87:
        1c:fa:7d:fa:8a:1f:15:c5:1a:40:25:05:5a:fe:d4:60:bf:81:
        d7:f7:c6:8c:fd:e2:20:58:67:18:4f:f4:9f:0a:ce:0e:77:65:
        38:3c:fa:a8:ca:f8:68:bf:55:4c:8a:18:f7:7a:c6:f7:c2:1f:
        c2:5e:ec:87:c7:9b:f3:6c:19:82:c6:fb:b8:78:87:8e:d3:7e:
        cb:68:2c:32:0e:c5:46:1c:5d:39:0f:44:72:78:c4:3f:68:6d:
        82:13:a9:03:19:d0:86:4b:0f:95:80:9c:9c:4a:e4:32:ac:b6:
        cb:15:38:89:b7:b6:59:88:b0:ca:dd:1a:c5:f3:88:f5:07:de:
        63:f6:01:85:13:24:d6:e9:1a:19:b5:ff:5e:ea:4d:ee:f2:4a:
        a9:c2:55:d5:0f:41:4b:1b:16:93:52:70:80:71:2b:21:52:32:
        73:58:81:6e:17:8a:9c:b5:2a:15:a4:8c:d0:aa:91:a7:4e:c8:
        d6:15:9d:84:89:bb:e8:92:f2:67:d7:ce:f1:89:f6:a4:6a:24:
        ac:a7:d1:2a:d7:dc:e3:4e:07:cf:c7:49:f0:fa:88:43:9d:d1:
        c5:80:f9:c8:33:4c:f8:19:c7:39:9d:13:c0:d9:b3:72:bd:13:
        80:dc:58:34
-----BEGIN CERTIFICATE-----
MIIEzTCCA7WgAwIBAgIBATANBgkqhkiG9w0BAQsFADCBlzELMAkGA1UEBhMCUk8x
CzAJBgNVBAgMAklGMRIwEAYDVQQHDAlCdWNoYXJlc3QxDDAKBgNVBAoMA1VQQjEM
MAoGA1UECwwDQUNTMRowGAYDVQQDDBFkc3RyYXR1bGF0X3NlcnZlcjEvMC0GCSqG
SIb3DQEJARYgZHJhZ29zLnN0cmF0dWxhdEBzdHVkLmFjcy51cGIucnAwHhcNMjMx
MDI1MDk1MTQyWhcNMzMxMDIyMDk1MTQyWjB7MQswCQYDVQQGEwJSTzELMAkGA1UE
CAwCSUYxEjAQBgNVBAcMCUJ1Y2hhcmVzdDEMMAoGA1UECgwDVVBCMQwwCgYDVQQL
DANBQ1MxDzANBgNVBAMMBnNlcnZlcjEeMBwGCSqGSIb3DQEJARYPZW1haWxAY3Mu
cHViLnJvMIIBIjANBgkqhkiG9w0BAQEFAAOCAQ8AMIIBCgKCAQEA5n7tpFSfYPPe
yntT+oNzfepHbE2D4f93ew3gHKiuH5wq+MqJqgUgXEsWxLYRtOrzDaXPwzJnBmqk
sqRgu19yPcV3lhtSHd9BQOXqb8EW/f14Z4/hq8fPdrRbyHf5I5oHxFDqDGfWMLum
InPbkbamLrWEkD7n5mN96pa2/D9FReMZkglXGQfJ9srs3GZd3NXwbDY1bbCA3SaL
7Bkk6B34DPmsKIcFuWSREGd9FzIkGQiA+ck/O3lI6sbkbl4+uDXcIhAl/59dyV80
vMtP39zcVD2bxlY+Rd3pLRHHcozURjx2IYFIWDKKVoQCv17wTLz5lGQIbvoFJyt7
/5VJm3vDXwIDAQABo4IBPTCCATkwCQYDVR0TBAIwADARBglghkgBhvhCAQEEBAMC
BkAwHQYDVR0OBBYEFAYJWfQDfzv4bEuehRaGgWrtiiZhMIHXBgNVHSMEgc8wgcyA
FNcrVWufJc8QZKQxhe0Yw1vdcCvDoYGdpIGaMIGXMQswCQYDVQQGEwJSTzELMAkG
A1UECAwCSUYxEjAQBgNVBAcMCUJ1Y2hhcmVzdDEMMAoGA1UECgwDVVBCMQwwCgYD
VQQLDANBQ1MxGjAYBgNVBAMMEWRzdHJhdHVsYXRfc2VydmVyMS8wLQYJKoZIhvcN
AQkBFiBkcmFnb3Muc3RyYXR1bGF0QHN0dWQuYWNzLnVwYi5ycIIUIQ0BVSyhRRab
FRKsfAUkAfL/GHUwEwYDVR0lBAwwCgYIKwYBBQUHAwEwCwYDVR0PBAQDAgWgMA0G
CSqGSIb3DQEBCwUAA4IBAQAW0Q7ek9G/heVhXJcvyqnNQocc+n36ih8VxRpAJQVa
/tRgv4HX98aM/eIgWGcYT/SfCs4Od2U4PPqoyvhov1VMihj3esb3wh/CXuyHx5vz
bBmCxvu4eIeO037LaCwyDsVGHF05D0RyeMQ/aG2CE6kDGdCGSw+VgJycSuQyrLbL
FTiJt7ZZiLDK3RrF84j1B95j9gGFEyTW6RoZtf9e6k3u8kqpwlXVD0FLGxaTUnCA
cSshUjJzWIFuF4qctSoVpIzQqpGnTsjWFZ2EibvokvJn187xifakaiSsp9Eq19zj
TgfPx0nw+ohDndHFgPnIM0z4Gcc5nRPA2bNyvROA3Fg0
-----END CERTIFICATE-----
