Certificate:
    Data:
        Version: 3 (0x2)
        Serial Number: 2 (0x2)
        Signature Algorithm: sha256WithRSAEncryption
        Issuer: C=RO, ST=IF, L=Bucharest, O=UPB, OU=ACS, CN=dstratulat_server/emailAddress=dragos.stratulat@stud.acs.upb.rp
        Validity
            Not Before: Oct 25 09:56:37 2023 GMT
            Not After : Oct 22 09:56:37 2033 GMT
        Subject: C=RO, ST=IF, L=Bucharest, O=UPB, OU=ACS, CN=client/emailAddress=client@cs.pub.ro
        Subject Public Key Info:
            Public Key Algorithm: rsaEncryption
                Public-Key: (2048 bit)
                Modulus:
                    00:bd:37:ac:bb:eb:be:03:21:54:e8:75:73:c2:39:
                    d4:a1:81:80:86:64:c7:8a:6d:84:8d:f5:61:02:0f:
                    6a:f6:d6:a3:c5:79:1b:80:6d:8b:fc:e8:32:2e:fa:
                    3b:ac:19:8a:16:1d:d2:bc:fd:77:a0:c8:10:38:67:
                    b2:22:8a:39:ab:a8:00:e6:de:54:37:d5:e9:c8:bb:
                    b7:f9:0b:a0:ac:ab:4d:3b:ef:5b:38:a2:60:04:b8:
                    b6:bb:4c:df:24:75:4e:a9:db:c4:43:83:cf:d1:58:
                    e8:c3:49:1d:11:a3:75:aa:f8:e7:e8:37:0f:54:86:
                    7e:66:96:c5:f1:e7:5d:85:10:23:af:25:2e:bc:40:
                    49:09:c8:a8:76:53:36:d4:d1:dc:58:d5:f5:a1:e9:
                    0f:88:22:a3:72:be:0b:3f:2a:27:61:71:85:57:49:
                    fd:7d:f3:8f:4a:51:80:fc:9b:78:71:a8:ff:08:b3:
                    9b:01:3f:10:45:22:5b:cd:03:58:09:31:3e:e4:0a:
                    1b:59:e1:24:2d:55:5c:33:7c:9b:fb:5a:77:72:80:
                    b5:30:d6:b4:a3:eb:88:8f:21:ba:66:00:49:21:8d:
                    89:86:a3:83:45:d5:ec:ef:d5:98:75:62:2d:b7:a1:
                    79:fa:cf:2e:88:d1:d7:93:f6:3c:0e:73:82:40:0e:
                    4c:27
                Exponent: 65537 (0x10001)
        X509v3 extensions:
            X509v3 Basic Constraints: 
                CA:FALSE
            X509v3 Subject Key Identifier: 
                08:34:74:EA:F6:D5:49:7A:7A:55:26:AA:19:3E:5B:64:F8:81:02:0B
            X509v3 Authority Key Identifier: 
                keyid:D7:2B:55:6B:9F:25:CF:10:64:A4:31:85:ED:18:C3:5B:DD:70:2B:C3
                DirName:/C=RO/ST=IF/L=Bucharest/O=UPB/OU=ACS/CN=dstratulat_server/emailAddress=dragos.stratulat@stud.acs.upb.rp
                serial:21:0D:01:55:2C:A1:45:16:9B:15:12:AC:7C:05:24:01:F2:FF:18:75
    Signature Algorithm: sha256WithRSAEncryption
    Signature Value:
        4f:f5:4e:14:de:9b:fe:9a:c2:fe:be:d4:3c:1b:1e:54:1c:de:
        76:f2:21:72:d9:d7:de:30:45:3e:c0:38:e0:d8:2b:5e:b9:25:
        dd:78:14:92:d8:0f:0f:e3:6a:3e:3f:ff:eb:95:6f:f8:7d:73:
        9e:27:3b:ba:65:4f:6c:77:e7:8c:b8:08:1c:a0:88:1e:5a:ea:
        d6:9d:55:b1:90:5b:0f:6d:7f:e3:c6:d4:5e:d3:3a:2c:a9:2a:
        3c:62:0a:9b:be:1d:db:ea:1c:f5:21:b7:c8:63:00:3b:21:9c:
        e8:b4:fe:d0:54:69:fa:57:21:02:be:71:5e:28:a9:d0:4c:2d:
        7e:d1:b8:25:96:a8:dd:0b:6c:e9:10:21:ef:b6:6a:d6:8a:4f:
        fe:d0:0a:bb:91:29:7e:7c:ad:3c:b0:d5:5f:16:f7:6f:52:da:
        cd:0b:59:af:b7:c7:af:31:74:45:e5:1c:e2:00:81:6a:49:61:
        50:6d:f7:57:f2:20:fd:9e:c6:ff:14:b2:73:bc:c0:6a:b3:11:
        2a:12:4d:1f:ba:ef:1e:11:c5:5e:da:24:c4:a7:a8:61:d6:e9:
        9b:90:12:59:3c:e0:7b:bc:a0:45:c9:80:1c:f2:69:c4:98:7c:
        26:ad:dc:46:3d:5c:83:57:f1:65:3a:39:9d:f5:30:de:52:3d:
        bf:a2:4e:78
-----BEGIN CERTIFICATE-----
MIIEmTCCA4GgAwIBAgIBAjANBgkqhkiG9w0BAQsFADCBlzELMAkGA1UEBhMCUk8x
CzAJBgNVBAgMAklGMRIwEAYDVQQHDAlCdWNoYXJlc3QxDDAKBgNVBAoMA1VQQjEM
MAoGA1UECwwDQUNTMRowGAYDVQQDDBFkc3RyYXR1bGF0X3NlcnZlcjEvMC0GCSqG
SIb3DQEJARYgZHJhZ29zLnN0cmF0dWxhdEBzdHVkLmFjcy51cGIucnAwHhcNMjMx
MDI1MDk1NjM3WhcNMzMxMDIyMDk1NjM3WjB8MQswCQYDVQQGEwJSTzELMAkGA1UE
CAwCSUYxEjAQBgNVBAcMCUJ1Y2hhcmVzdDEMMAoGA1UECgwDVVBCMQwwCgYDVQQL
DANBQ1MxDzANBgNVBAMMBmNsaWVudDEfMB0GCSqGSIb3DQEJARYQY2xpZW50QGNz
LnB1Yi5ybzCCASIwDQYJKoZIhvcNAQEBBQADggEPADCCAQoCggEBAL03rLvrvgMh
VOh1c8I51KGBgIZkx4pthI31YQIPavbWo8V5G4Bti/zoMi76O6wZihYd0rz9d6DI
EDhnsiKKOauoAObeVDfV6ci7t/kLoKyrTTvvWziiYAS4trtM3yR1TqnbxEODz9FY
6MNJHRGjdar45+g3D1SGfmaWxfHnXYUQI68lLrxASQnIqHZTNtTR3FjV9aHpD4gi
o3K+Cz8qJ2FxhVdJ/X3zj0pRgPybeHGo/wizmwE/EEUiW80DWAkxPuQKG1nhJC1V
XDN8m/tad3KAtTDWtKPriI8humYASSGNiYajg0XV7O/VmHViLbehefrPLojR15P2
PA5zgkAOTCcCAwEAAaOCAQgwggEEMAkGA1UdEwQCMAAwHQYDVR0OBBYEFAg0dOr2
1Ul6elUmqhk+W2T4gQILMIHXBgNVHSMEgc8wgcyAFNcrVWufJc8QZKQxhe0Yw1vd
cCvDoYGdpIGaMIGXMQswCQYDVQQGEwJSTzELMAkGA1UECAwCSUYxEjAQBgNVBAcM
CUJ1Y2hhcmVzdDEMMAoGA1UECgwDVVBCMQwwCgYDVQQLDANBQ1MxGjAYBgNVBAMM
EWRzdHJhdHVsYXRfc2VydmVyMS8wLQYJKoZIhvcNAQkBFiBkcmFnb3Muc3RyYXR1
bGF0QHN0dWQuYWNzLnVwYi5ycIIUIQ0BVSyhRRabFRKsfAUkAfL/GHUwDQYJKoZI
hvcNAQELBQADggEBAE/1ThTem/6awv6+1DwbHlQc3nbyIXLZ194wRT7AOODYK165
Jd14FJLYDw/jaj4//+uVb/h9c54nO7plT2x354y4CBygiB5a6tadVbGQWw9tf+PG
1F7TOiypKjxiCpu+HdvqHPUht8hjADshnOi0/tBUafpXIQK+cV4oqdBMLX7RuCWW
qN0LbOkQIe+2ataKT/7QCruRKX58rTyw1V8W929S2s0LWa+3x68xdEXlHOIAgWpJ
YVBt91fyIP2exv8UsnO8wGqzESoSTR+67x4RxV7aJMSnqGHW6ZuQElk84Hu8oEXJ
gBzyacSYfCat3EY9XINX8WU6OZ31MN5SPb+iTng=
-----END CERTIFICATE-----
