Certificate:
    Data:
        Version: 3 (0x2)
        Serial Number: 3 (0x3)
        Signature Algorithm: sha256WithRSAEncryption
        Issuer: C=RO, ST=IF, L=Bucharest, O=UPB, OU=ACS, CN=dstratulat_server/emailAddress=dragos.stratulat@stud.acs.upb.rp
        Validity
            Not Before: Oct 25 10:57:42 2023 GMT
            Not After : Oct 22 10:57:42 2033 GMT
        Subject: C=RO, ST=IF, L=Bucharest, O=UPB, OU=ACS, CN=certificate/emailAddress=email@cs.pub.ro
        Subject Public Key Info:
            Public Key Algorithm: rsaEncryption
                Public-Key: (2048 bit)
                Modulus:
                    00:a8:19:fd:ce:53:82:ef:8e:a3:1f:92:e1:49:6b:
                    6e:e8:ba:bb:5d:33:5d:ae:41:f9:10:3c:87:38:e6:
                    8e:46:46:2a:b9:41:d9:7d:13:0e:cb:d2:f0:5a:6c:
                    1a:03:b5:88:0f:7d:1b:8f:13:42:7f:0f:25:fc:bb:
                    58:c8:8f:ae:a8:54:8e:48:5a:42:0b:4a:dc:75:c8:
                    93:ea:44:25:1e:2c:25:72:1a:84:88:a6:a8:cf:cf:
                    d7:f4:08:2c:fe:26:49:2d:03:a7:a3:e8:3a:ed:d3:
                    4e:39:38:6d:20:af:be:ea:df:29:42:fa:fc:90:b1:
                    9d:25:92:f4:c5:41:5f:fd:88:f4:ca:73:0a:41:91:
                    47:ea:68:d8:49:1a:25:db:f9:96:f3:8c:d6:da:20:
                    93:cc:84:18:43:f4:8e:2b:3f:03:b3:82:e5:62:14:
                    67:03:74:64:29:d1:7a:26:35:6a:ef:c9:3e:e5:1c:
                    8c:1f:9c:c1:74:7c:c2:b3:76:b0:6f:0a:d9:ae:e0:
                    a1:b8:36:17:15:75:04:35:81:70:bb:82:d5:01:b1:
                    26:df:7c:c1:83:c3:f7:16:53:f4:ad:cc:bc:d4:56:
                    6c:8e:47:08:a3:10:c1:5b:45:03:9d:83:76:21:16:
                    cf:92:61:e4:12:73:81:04:cb:71:d9:5c:64:33:ce:
                    83:67
                Exponent: 65537 (0x10001)
        X509v3 extensions:
            X509v3 Basic Constraints: 
                CA:FALSE
            Netscape Cert Type: 
                SSL Server
            X509v3 Subject Key Identifier: 
                1A:60:C0:EB:E9:F1:11:3E:05:A8:C1:76:89:87:BE:36:9A:A7:23:BD
            X509v3 Authority Key Identifier: 
                keyid:D7:2B:55:6B:9F:25:CF:10:64:A4:31:85:ED:18:C3:5B:DD:70:2B:C3
                DirName:/C=RO/ST=IF/L=Bucharest/O=UPB/OU=ACS/CN=dstratulat_server/emailAddress=dragos.stratulat@stud.acs.upb.rp
                serial:21:0D:01:55:2C:A1:45:16:9B:15:12:AC:7C:05:24:01:F2:FF:18:75
            X509v3 Extended Key Usage: 
                TLS Web Server Authentication
            X509v3 Key Usage: 
                Digital Signature, Key Encipherment
    Signature Algorithm: sha256WithRSAEncryption
    Signature Value:
        57:7e:53:86:7e:91:d6:fa:52:c3:38:1c:d7:c5:83:8b:f7:32:
        d1:06:9d:cb:59:59:cb:2f:23:b5:98:97:8a:1e:9c:eb:9c:b9:
        8f:8c:d1:99:e8:0b:31:6c:8d:b8:82:87:69:3f:8f:ff:24:6e:
        b8:de:b7:08:78:bd:76:84:e1:df:87:c0:a6:b3:5b:d7:59:56:
        7f:99:57:3a:e1:c3:ac:14:c5:3e:8f:4e:a3:38:60:94:46:ac:
        4f:d8:21:4a:d0:cb:38:fb:bd:a5:50:a7:09:ce:c6:d4:a7:d4:
        68:2a:52:20:3f:70:98:6b:7f:f9:b3:00:23:30:ed:10:04:60:
        da:9b:29:dc:cc:cf:62:b6:ca:64:52:9d:52:10:3a:14:60:a0:
        00:06:9c:af:65:65:87:7f:12:0a:e8:95:25:89:8d:1b:ce:9d:
        62:dc:3a:b8:75:53:ba:02:de:9a:1d:4c:d1:90:fe:4f:e1:8e:
        f0:46:c0:90:14:84:df:5c:2e:58:25:5a:0b:b3:11:4f:24:93:
        b3:05:ac:ea:75:91:33:61:bb:a3:ce:3a:16:c7:af:a6:de:c3:
        1e:ae:07:3c:a4:d7:61:a8:72:c0:6a:f5:2b:17:25:d0:35:8a:
        d4:56:a7:6d:00:59:ed:ce:90:64:65:ca:2c:bb:48:f9:e0:5c:
        12:2d:64:fa
-----BEGIN CERTIFICATE-----
MIIE0zCCA7ugAwIBAgIBAzANBgkqhkiG9w0BAQsFADCBlzELMAkGA1UEBhMCUk8x
CzAJBgNVBAgMAklGMRIwEAYDVQQHDAlCdWNoYXJlc3QxDDAKBgNVBAoMA1VQQjEM
MAoGA1UECwwDQUNTMRowGAYDVQQDDBFkc3RyYXR1bGF0X3NlcnZlcjEvMC0GCSqG
SIb3DQEJARYgZHJhZ29zLnN0cmF0dWxhdEBzdHVkLmFjcy51cGIucnAwHhcNMjMx
MDI1MTA1NzQyWhcNMzMxMDIyMTA1NzQyWjCBgDELMAkGA1UEBhMCUk8xCzAJBgNV
BAgMAklGMRIwEAYDVQQHDAlCdWNoYXJlc3QxDDAKBgNVBAoMA1VQQjEMMAoGA1UE
CwwDQUNTMRQwEgYDVQQDDAtjZXJ0aWZpY2F0ZTEeMBwGCSqGSIb3DQEJARYPZW1h
aWxAY3MucHViLnJvMIIBIjANBgkqhkiG9w0BAQEFAAOCAQ8AMIIBCgKCAQEAqBn9
zlOC746jH5LhSWtu6Lq7XTNdrkH5EDyHOOaORkYquUHZfRMOy9LwWmwaA7WID30b
jxNCfw8l/LtYyI+uqFSOSFpCC0rcdciT6kQlHiwlchqEiKaoz8/X9Ags/iZJLQOn
o+g67dNOOThtIK++6t8pQvr8kLGdJZL0xUFf/Yj0ynMKQZFH6mjYSRol2/mW84zW
2iCTzIQYQ/SOKz8Ds4LlYhRnA3RkKdF6JjVq78k+5RyMH5zBdHzCs3awbwrZruCh
uDYXFXUENYFwu4LVAbEm33zBg8P3FlP0rcy81FZsjkcIoxDBW0UDnYN2IRbPkmHk
EnOBBMtx2VxkM86DZwIDAQABo4IBPTCCATkwCQYDVR0TBAIwADARBglghkgBhvhC
AQEEBAMCBkAwHQYDVR0OBBYEFBpgwOvp8RE+BajBdomHvjaapyO9MIHXBgNVHSME
gc8wgcyAFNcrVWufJc8QZKQxhe0Yw1vdcCvDoYGdpIGaMIGXMQswCQYDVQQGEwJS
TzELMAkGA1UECAwCSUYxEjAQBgNVBAcMCUJ1Y2hhcmVzdDEMMAoGA1UECgwDVVBC
MQwwCgYDVQQLDANBQ1MxGjAYBgNVBAMMEWRzdHJhdHVsYXRfc2VydmVyMS8wLQYJ
KoZIhvcNAQkBFiBkcmFnb3Muc3RyYXR1bGF0QHN0dWQuYWNzLnVwYi5ycIIUIQ0B
VSyhRRabFRKsfAUkAfL/GHUwEwYDVR0lBAwwCgYIKwYBBQUHAwEwCwYDVR0PBAQD
AgWgMA0GCSqGSIb3DQEBCwUAA4IBAQBXflOGfpHW+lLDOBzXxYOL9zLRBp3LWVnL
LyO1mJeKHpzrnLmPjNGZ6AsxbI24godpP4//JG643rcIeL12hOHfh8Cms1vXWVZ/
mVc64cOsFMU+j06jOGCURqxP2CFK0Ms4+72lUKcJzsbUp9RoKlIgP3CYa3/5swAj
MO0QBGDamynczM9itspkUp1SEDoUYKAABpyvZWWHfxIK6JUliY0bzp1i3Dq4dVO6
At6aHUzRkP5P4Y7wRsCQFITfXC5YJVoLsxFPJJOzBazqdZEzYbujzjoWx6+m3sMe
rgc8pNdhqHLAavUrFyXQNYrUVqdtAFntzpBkZcosu0j54FwSLWT6
-----END CERTIFICATE-----
