Certificate:
    Data:
        Version: 3 (0x2)
        Serial Number: 4 (0x4)
        Signature Algorithm: sha256WithRSAEncryption
        Issuer: C=RO, ST=IF, L=Bucharest, O=UPB, OU=ACS, CN=dstratulat_server/emailAddress=dragos.stratulat@stud.acs.upb.rp
        Validity
            Not Before: Oct 25 11:05:08 2023 GMT
            Not After : Oct 22 11:05:08 2033 GMT
        Subject: C=RO, OU=SAS-Server, CN=server/emailAddress=server@mail.com
        Subject Public Key Info:
            Public Key Algorithm: rsaEncryption
                Public-Key: (2048 bit)
                Modulus:
                    00:a0:79:16:2c:09:c1:3a:84:ea:96:f3:ef:39:e9:
                    6e:b4:8f:10:98:1e:f0:f3:c6:34:3d:de:f4:47:79:
                    30:05:21:d2:e8:45:ef:e3:2b:4b:7e:94:a6:b6:66:
                    9a:bc:72:5e:5b:19:5c:ee:eb:e6:e5:78:5c:12:87:
                    e4:00:2d:49:b5:26:85:c4:1b:a8:02:df:09:eb:a4:
                    86:0f:74:67:44:04:2e:f0:bc:8f:d4:05:0c:e0:73:
                    d4:18:ed:fc:a9:ea:6e:df:66:10:7b:5b:f2:c5:16:
                    73:c7:a9:23:c8:d5:45:1f:82:c8:4a:25:44:65:4d:
                    a5:48:a1:f4:c0:ca:14:87:9b:0b:91:2a:38:6a:ce:
                    eb:c5:ab:24:4c:30:d4:51:e3:b0:d0:56:2e:55:62:
                    af:c9:c9:fa:39:ce:26:3e:a4:51:5e:09:5e:96:16:
                    1b:b4:d8:1a:78:eb:75:47:af:02:d2:e4:3d:1b:b6:
                    5b:d9:bc:b5:55:70:13:73:a0:36:1e:99:17:14:ac:
                    b0:d5:59:20:89:98:c4:10:f2:45:29:dc:d2:f3:56:
                    54:47:62:be:e2:1b:6d:f5:fd:24:31:f3:a6:0c:e4:
                    75:9c:e7:4d:72:97:e9:33:3c:81:ab:3f:a4:e8:73:
                    e2:22:e7:44:aa:89:77:8f:7c:e7:12:b6:26:17:52:
                    a8:75
                Exponent: 65537 (0x10001)
        X509v3 extensions:
            X509v3 Basic Constraints: 
                CA:FALSE
            Netscape Cert Type: 
                SSL Server
            X509v3 Subject Key Identifier: 
                22:08:4B:00:E3:79:9F:50:E6:CD:A4:74:68:85:D5:25:60:AF:EB:46
            X509v3 Authority Key Identifier: 
                keyid:D7:2B:55:6B:9F:25:CF:10:64:A4:31:85:ED:18:C3:5B:DD:70:2B:C3
                DirName:/C=RO/ST=IF/L=Bucharest/O=UPB/OU=ACS/CN=dstratulat_server/emailAddress=dragos.stratulat@stud.acs.upb.rp
                serial:21:0D:01:55:2C:A1:45:16:9B:15:12:AC:7C:05:24:01:F2:FF:18:75
            X509v3 Extended Key Usage: 
                TLS Web Server Authentication
            X509v3 Key Usage: 
                Digital Signature, Key Encipherment
    Signature Algorithm: sha256WithRSAEncryption
    Signature Value:
        82:59:d8:87:de:b1:ba:ce:da:5e:5d:17:71:6b:a4:b1:95:5d:
        c0:3b:74:f2:7b:25:dc:97:bd:88:3b:ab:8b:1a:8c:6d:a8:32:
        a8:67:5a:78:ca:08:6c:1f:e4:64:37:ca:14:06:80:e3:b0:75:
        dc:50:69:4f:59:ef:83:a3:68:4c:fa:6b:11:70:f3:de:9a:fc:
        78:55:b8:7a:14:53:5c:c6:85:73:70:56:25:01:79:18:88:06:
        cb:8a:26:66:e2:9e:e4:40:5d:54:c0:6b:bc:6e:fc:50:d1:b4:
        ed:3b:90:17:7d:6f:d7:9a:7a:be:f1:13:3a:4f:56:1d:bd:97:
        79:91:72:a6:9e:f1:1e:45:24:5a:15:ab:d2:4b:35:39:2e:30:
        82:02:f2:06:e2:52:01:e1:a8:95:b0:27:01:a5:25:8b:ce:00:
        95:23:16:55:70:bc:de:fd:4f:4f:a3:59:bf:2f:20:e0:f7:bf:
        7f:0e:05:f3:e2:23:88:a7:1d:09:0e:94:cb:01:3a:91:75:69:
        8f:70:a7:b1:de:a5:6a:9b:ab:e7:2e:8d:1e:77:b4:60:27:1c:
        17:1c:54:66:af:80:c9:53:f0:0f:10:94:77:66:c1:26:41:be:
        a0:52:2c:ad:aa:a8:2a:5b:9c:76:31:78:89:c0:23:7f:61:11:
        1a:2a:86:42
-----BEGIN CERTIFICATE-----
MIIEpTCCA42gAwIBAgIBBDANBgkqhkiG9w0BAQsFADCBlzELMAkGA1UEBhMCUk8x
CzAJBgNVBAgMAklGMRIwEAYDVQQHDAlCdWNoYXJlc3QxDDAKBgNVBAoMA1VQQjEM
MAoGA1UECwwDQUNTMRowGAYDVQQDDBFkc3RyYXR1bGF0X3NlcnZlcjEvMC0GCSqG
SIb3DQEJARYgZHJhZ29zLnN0cmF0dWxhdEBzdHVkLmFjcy51cGIucnAwHhcNMjMx
MDI1MTEwNTA4WhcNMzMxMDIyMTEwNTA4WjBTMQswCQYDVQQGEwJSTzETMBEGA1UE
CwwKU0FTLVNlcnZlcjEPMA0GA1UEAwwGc2VydmVyMR4wHAYJKoZIhvcNAQkBFg9z
ZXJ2ZXJAbWFpbC5jb20wggEiMA0GCSqGSIb3DQEBAQUAA4IBDwAwggEKAoIBAQCg
eRYsCcE6hOqW8+856W60jxCYHvDzxjQ93vRHeTAFIdLoRe/jK0t+lKa2Zpq8cl5b
GVzu6+bleFwSh+QALUm1JoXEG6gC3wnrpIYPdGdEBC7wvI/UBQzgc9QY7fyp6m7f
ZhB7W/LFFnPHqSPI1UUfgshKJURlTaVIofTAyhSHmwuRKjhqzuvFqyRMMNRR47DQ
Vi5VYq/Jyfo5ziY+pFFeCV6WFhu02Bp463VHrwLS5D0btlvZvLVVcBNzoDYemRcU
rLDVWSCJmMQQ8kUp3NLzVlRHYr7iG231/SQx86YM5HWc501yl+kzPIGrP6Toc+Ii
50SqiXePfOcStiYXUqh1AgMBAAGjggE9MIIBOTAJBgNVHRMEAjAAMBEGCWCGSAGG
+EIBAQQEAwIGQDAdBgNVHQ4EFgQUIghLAON5n1DmzaR0aIXVJWCv60YwgdcGA1Ud
IwSBzzCBzIAU1ytVa58lzxBkpDGF7RjDW91wK8OhgZ2kgZowgZcxCzAJBgNVBAYT
AlJPMQswCQYDVQQIDAJJRjESMBAGA1UEBwwJQnVjaGFyZXN0MQwwCgYDVQQKDANV
UEIxDDAKBgNVBAsMA0FDUzEaMBgGA1UEAwwRZHN0cmF0dWxhdF9zZXJ2ZXIxLzAt
BgkqhkiG9w0BCQEWIGRyYWdvcy5zdHJhdHVsYXRAc3R1ZC5hY3MudXBiLnJwghQh
DQFVLKFFFpsVEqx8BSQB8v8YdTATBgNVHSUEDDAKBggrBgEFBQcDATALBgNVHQ8E
BAMCBaAwDQYJKoZIhvcNAQELBQADggEBAIJZ2IfesbrO2l5dF3FrpLGVXcA7dPJ7
JdyXvYg7q4sajG2oMqhnWnjKCGwf5GQ3yhQGgOOwddxQaU9Z74OjaEz6axFw896a
/HhVuHoUU1zGhXNwViUBeRiIBsuKJmbinuRAXVTAa7xu/FDRtO07kBd9b9eaer7x
EzpPVh29l3mRcqae8R5FJFoVq9JLNTkuMIIC8gbiUgHhqJWwJwGlJYvOAJUjFlVw
vN79T0+jWb8vIOD3v38OBfPiI4inHQkOlMsBOpF1aY9wp7HepWqbq+cujR53tGAn
HBccVGavgMlT8A8QlHdmwSZBvqBSLK2qqCpbnHYxeInAI39hERoqhkI=
-----END CERTIFICATE-----
